; Function Attrs: nounwind uwtable
define ptr @l_Lean_IR_ExplicitRC_getJPLiveVars___boxed(ptr noundef %0, ptr noundef %1) local_unnamed_addr #0 {
  %3 = getelementptr inbounds nuw i8, ptr %0, i64 32
  %4 = load ptr, ptr %3, align 8, !tbaa !4
  %5 = tail call ptr @l_Lean_RBNode_find___at___private_Lean_Compiler_IR_LiveVars_0__Lean_IR_LiveVars_collectJP___spec__1(ptr noundef %4, ptr noundef %1) #6
  %6 = ptrtoint ptr %5 to i64
  %7 = and i64 %6, 1
  %.not.i10.i = icmp eq i64 %7, 0
  br i1 %.not.i10.i, label %11, label %8

8:                                                ; preds = %2
  %9 = lshr i64 %6, 1
  %10 = trunc i64 %9 to i32
  br label %lean_obj_tag.exit.i

11:                                               ; preds = %2
  %12 = getelementptr i8, ptr %5, i64 4
  %.val.i.i = load i32, ptr %12, align 4
  %13 = lshr i32 %.val.i.i, 24
  br label %lean_obj_tag.exit.i

lean_obj_tag.exit.i:                              ; preds = %11, %8
  %.0.i.i = phi i32 [ %10, %8 ], [ %13, %11 ]
  %14 = icmp eq i32 %.0.i.i, 0
  br i1 %14, label %l_Lean_IR_ExplicitRC_getJPLiveVars.exit, label %15

15:                                               ; preds = %lean_obj_tag.exit.i
  %16 = getelementptr inbounds nuw i8, ptr %5, i64 8
  %17 = load ptr, ptr %16, align 8, !tbaa !4
  %18 = ptrtoint ptr %17 to i64
  %19 = and i64 %18, 1
  %.not.i8 = icmp eq i64 %19, 0
  br i1 %.not.i8, label %20, label %lean_inc.exit.i

20:                                               ; preds = %15
  %.val.i11.i = load i32, ptr %17, align 4, !tbaa !8
  %21 = icmp sgt i32 %.val.i11.i, 0
  br i1 %21, label %22, label %24, !prof !11

22:                                               ; preds = %20
  %23 = add nuw i32 %.val.i11.i, 1
  store i32 %23, ptr %17, align 4, !tbaa !8
  br label %lean_inc.exit.i

24:                                               ; preds = %20
  %.not.i12.i = icmp eq i32 %.val.i11.i, 0
  br i1 %.not.i12.i, label %lean_inc.exit.i, label %25

25:                                               ; preds = %24
  tail call void @lean_inc_ref_cold(ptr noundef nonnull %17) #6
  br label %lean_inc.exit.i

lean_inc.exit.i:                                  ; preds = %25, %24, %22, %15
  br i1 %.not.i10.i, label %26, label %l_Lean_IR_ExplicitRC_getJPLiveVars.exit

26:                                               ; preds = %lean_inc.exit.i
  %27 = load i32, ptr %5, align 4, !tbaa !8
  %28 = icmp sgt i32 %27, 1
  br i1 %28, label %29, label %31, !prof !11

29:                                               ; preds = %26
  %30 = add nsw i32 %27, -1
  store i32 %30, ptr %5, align 4, !tbaa !8
  br label %l_Lean_IR_ExplicitRC_getJPLiveVars.exit

31:                                               ; preds = %26
  %.not.i.i = icmp eq i32 %27, 0
  br i1 %.not.i.i, label %l_Lean_IR_ExplicitRC_getJPLiveVars.exit, label %32

32:                                               ; preds = %31
  tail call void @lean_dec_ref_cold(ptr noundef nonnull %5) #6
  br label %l_Lean_IR_ExplicitRC_getJPLiveVars.exit

l_Lean_IR_ExplicitRC_getJPLiveVars.exit:          ; preds = %lean_obj_tag.exit.i, %lean_inc.exit.i, %29, %31, %32
  %.0.i = phi ptr [ inttoptr (i64 1 to ptr), %lean_obj_tag.exit.i ], [ %17, %32 ], [ %17, %31 ], [ %17, %29 ], [ %17, %lean_inc.exit.i ]
  %33 = ptrtoint ptr %1 to i64
  %34 = and i64 %33, 1
  %.not = icmp eq i64 %34, 0
  br i1 %.not, label %35, label %lean_dec.exit5

35:                                               ; preds = %l_Lean_IR_ExplicitRC_getJPLiveVars.exit
  %36 = load i32, ptr %1, align 4, !tbaa !8
  %37 = icmp sgt i32 %36, 1
  br i1 %37, label %38, label %40, !prof !11

38:                                               ; preds = %35
  %39 = add nsw i32 %36, -1
  store i32 %39, ptr %1, align 4, !tbaa !8
  br label %lean_dec.exit5

40:                                               ; preds = %35
  %.not.i = icmp eq i32 %36, 0
  br i1 %.not.i, label %lean_dec.exit5, label %41

41:                                               ; preds = %40
  tail call void @lean_dec_ref_cold(ptr noundef nonnull %1) #6
  br label %lean_dec.exit5

lean_dec.exit5:                                   ; preds = %41, %40, %38, %l_Lean_IR_ExplicitRC_getJPLiveVars.exit
  %42 = ptrtoint ptr %0 to i64
  %43 = and i64 %42, 1
  %.not9 = icmp eq i64 %43, 0
  br i1 %.not9, label %44, label %lean_dec.exit

44:                                               ; preds = %lean_dec.exit5
  %45 = load i32, ptr %0, align 4, !tbaa !8
  %46 = icmp sgt i32 %45, 1
  br i1 %46, label %47, label %49, !prof !11

47:                                               ; preds = %44
  %48 = add nsw i32 %45, -1
  store i32 %48, ptr %0, align 4, !tbaa !8
  br label %lean_dec.exit

49:                                               ; preds = %44
  %.not.i6 = icmp eq i32 %45, 0
  br i1 %.not.i6, label %lean_dec.exit, label %50

50:                                               ; preds = %49
  tail call void @lean_dec_ref_cold(ptr noundef nonnull %0) #6
  br label %lean_dec.exit

lean_dec.exit:                                    ; preds = %50, %49, %47, %lean_dec.exit5
  ret ptr %.0.i
}